; Function Attrs: mustprogress nofree norecurse nosync nounwind willreturn memory(argmem: readwrite) uwtable
define void @_ZN4toku8treenode9child_ptr3setEPS0_(ptr noundef nonnull writeonly align 8 captures(none) dereferenceable(16) initializes((0, 12)) %0, ptr noundef %1) local_unnamed_addr #3 align 2 {
  store ptr %1, ptr %0, align 8, !tbaa !26
  %.not = icmp eq ptr %1, null
  br i1 %.not, label %10, label %3

3:                                                ; preds = %2
  %4 = getelementptr inbounds nuw i8, ptr %1, i64 168
  %5 = load i32, ptr %4, align 8, !tbaa !28
  %6 = getelementptr inbounds nuw i8, ptr %1, i64 184
  %7 = load i32, ptr %6, align 8, !tbaa !29
  %8 = tail call i32 @llvm.umax.i32(i32 %5, i32 %7)
  %9 = add i32 %8, 1
  br label %10

10:                                               ; preds = %2, %3
  %11 = phi i32 [ %9, %3 ], [ 0, %2 ]
  %12 = getelementptr inbounds nuw i8, ptr %0, i64 8
  store i32 %11, ptr %12, align 8, !tbaa !27
  ret void
}